; ModuleID = 'source-C-CXX/27/1095.c'
source_filename = "source-C-CXX/27/1095.c"
target datalayout = "e-m:e-p270:32:32-p271:32:32-p272:64:64-i64:64-f80:128-n8:16:32:64-S128"
target triple = "x86_64-pc-linux-gnu"

@.str = private unnamed_addr constant [3 x i8] c"%d\00", align 1
@.str.1 = private unnamed_addr constant [4 x i8] c",%d\00", align 1

; Function Attrs: nounwind sspstrong uwtable
define dso_local i32 @main() local_unnamed_addr #0 {
  %1 = alloca [1000 x i8], align 16
  %2 = getelementptr inbounds [1000 x i8], [1000 x i8]* %1, i64 0, i64 0
  call void @llvm.lifetime.start.p0i8(i64 1000, i8* nonnull %2) #5
  %3 = call i32 (i8*, ...) bitcast (i32 (...)* @gets to i32 (i8*, ...)*)(i8* nonnull %2) #5
  %4 = call i64 @strlen(i8* noundef nonnull %2) #6
  %5 = trunc i64 %4 to i32
  %6 = icmp sgt i32 %5, 0
  br i1 %6, label %7, label %41

7:                                                ; preds = %0
  %8 = load i8, i8* %2, align 16, !tbaa !5
  %9 = icmp ne i8 %8, 32
  %10 = zext i1 %9 to i32
  %11 = getelementptr inbounds [1000 x i8], [1000 x i8]* %1, i64 0, i64 1
  %12 = load i8, i8* %11, align 1, !tbaa !5
  switch i8 %12, label %15 [
    i8 32, label %13
    i8 0, label %13
  ]

13:                                               ; preds = %7, %7
  %14 = call i32 (i8*, ...) @printf(i8* nonnull dereferenceable(1) getelementptr inbounds ([3 x i8], [3 x i8]* @.str, i64 0, i64 0), i32 %10)
  br label %15

15:                                               ; preds = %13, %7
  %16 = icmp sgt i32 %5, 1
  br i1 %16, label %17, label %41

17:                                               ; preds = %15
  %18 = and i64 %4, 4294967295
  br label %19

19:                                               ; preds = %17, %39
  %20 = phi i64 [ 1, %17 ], [ %27, %39 ]
  %21 = phi i32 [ %10, %17 ], [ %26, %39 ]
  %22 = getelementptr inbounds [1000 x i8], [1000 x i8]* %1, i64 0, i64 %20
  %23 = load i8, i8* %22, align 1, !tbaa !5
  %24 = icmp eq i8 %23, 32
  %25 = add nsw i32 %21, 1
  %26 = select i1 %24, i32 0, i32 %25
  %27 = add nuw nsw i64 %20, 1
  %28 = getelementptr inbounds [1000 x i8], [1000 x i8]* %1, i64 0, i64 %27
  %29 = load i8, i8* %28, align 1, !tbaa !5
  %30 = icmp eq i8 %29, 32
  br i1 %30, label %35, label %31

31:                                               ; preds = %19
  %32 = icmp eq i8 %29, 0
  %33 = icmp ne i32 %26, 0
  %34 = select i1 %32, i1 %33, i1 false
  br i1 %34, label %37, label %39

35:                                               ; preds = %19
  %36 = icmp eq i32 %26, 0
  br i1 %36, label %39, label %37

37:                                               ; preds = %31, %35
  %38 = call i32 (i8*, ...) @printf(i8* nonnull dereferenceable(1) getelementptr inbounds ([4 x i8], [4 x i8]* @.str.1, i64 0, i64 0), i32 %26)
  br label %39

39:                                               ; preds = %31, %37, %35
  %40 = icmp eq i64 %27, %18
  br i1 %40, label %41, label %19, !llvm.loop !8

41:                                               ; preds = %39, %0, %15
  call void @llvm.lifetime.end.p0i8(i64 1000, i8* nonnull %2) #5
  ret i32 0
}

; Function Attrs: argmemonly mustprogress nofree nosync nounwind willreturn
declare void @llvm.lifetime.start.p0i8(i64 immarg, i8* nocapture) #1

declare i32 @gets(...) local_unnamed_addr #2

; Function Attrs: argmemonly mustprogress nofree nounwind readonly willreturn
declare i64 @strlen(i8* nocapture) local_unnamed_addr #3

; Function Attrs: nofree nounwind
declare noundef i32 @printf(i8* nocapture noundef readonly, ...) local_unnamed_addr #4

; Function Attrs: argmemonly mustprogress nofree nosync nounwind willreturn
declare void @llvm.lifetime.end.p0i8(i64 immarg, i8* nocapture) #1


!llvm.module.flags = !{!0, !1, !2, !3}
!llvm.ident = !{!4}

!0 = !{i32 1, !"wchar_size", i32 4}
!1 = !{i32 7, !"PIC Level", i32 2}
!2 = !{i32 7, !"PIE Level", i32 2}
!3 = !{i32 7, !"uwtable", i32 1}
!4 = !{!"clang version 13.0.0"}
!5 = !{!6, !6, i64 0}
!6 = !{!"omnipotent char", !7, i64 0}
!7 = !{!"Simple C/C++ TBAA"}
!8 = distinct !{!8, !9}
!9 = !{!"llvm.loop.mustprogress"}
